target datalayout = "e-m:e-p270:32:32-p271:32:32-p272:64:64-i64:64-i128:128-f80:128-n8:16:32:64-S128"
target triple = "x86_64-pc-linux-gnu"

@proto_register_fmp.ett = internal global [8 x ptr] [ptr @ett_fmp, ptr @ett_fmp_timeval, ptr @ett_fmp_extList, ptr @ett_fmp_ext, ptr @ett_fmp_fileHandle, ptr @ett_capabilities, ptr @ett_HierVolumeDescription, ptr @ett_attrs], align 16
@.str.177 = private unnamed_addr constant [22 x i8] c"File Mapping Protocol\00", align 1
@.str.178 = private unnamed_addr constant [4 x i8] c"FMP\00", align 1
@.str.179 = private unnamed_addr constant [4 x i8] c"fmp\00", align 1
@proto_fmp = internal global i32 0, align 4
@.str.180 = private unnamed_addr constant [25 x i8] c"fhandle_find_both_reqrep\00", align 1
@.str.181 = private unnamed_addr constant [44 x i8] c"Fhandle filters finds both request/response\00", align 1
@.str.182 = private unnamed_addr constant [126 x i8] c"With this option display filters for fmp fhandle a RPC call, even if the actual fhandle is only present in one of the packets\00", align 1
@fmp_fhandle_reqrep_matching = internal global i8 0, align 1

; Function Attrs: null_pointer_is_valid sspstrong uwtable
define hidden void @proto_register_fmp() #0 {
  %1 = alloca ptr, align 8
  call void @llvm.lifetime.start.p0(i64 8, ptr %1) #4
  %2 = call i32 @proto_register_protocol(ptr noundef @.str.177, ptr noundef @.str.178, ptr noundef @.str.179)
  store i32 %2, ptr @proto_fmp, align 4
  %3 = load i32, ptr @proto_fmp, align 4
  call void @proto_register_field_array(i32 noundef %3, ptr noundef @proto_register_fmp.hf, i32 noundef 85)
  call void @proto_register_subtree_array(ptr noundef @proto_register_fmp.ett, i32 noundef 8)
  %4 = load i32, ptr @proto_fmp, align 4
  %5 = call ptr @prefs_register_protocol(i32 noundef %4, ptr noundef null)
  store ptr %5, ptr %1, align 8
  %6 = load ptr, ptr %1, align 8
  call void @prefs_register_bool_preference(ptr noundef %6, ptr noundef @.str.180, ptr noundef @.str.181, ptr noundef @.str.182, ptr noundef @fmp_fhandle_reqrep_matching)
  call void @llvm.lifetime.end.p0(i64 8, ptr %1) #4
  ret void
}