; Function Attrs: null_pointer_is_valid sspstrong uwtable
define hidden void @proto_register_fmp() local_unnamed_addr #0 {
  %1 = tail call i32 @proto_register_protocol(ptr noundef nonnull @.str.177, ptr noundef nonnull @.str.178, ptr noundef nonnull @.str.179)
  store i32 %1, ptr @proto_fmp, align 4
  tail call void @proto_register_field_array(i32 noundef %1, ptr noundef nonnull @proto_register_fmp.hf, i32 noundef 85)
  tail call void @proto_register_subtree_array(ptr noundef nonnull @proto_register_fmp.ett, i32 noundef 8)
  %2 = load i32, ptr @proto_fmp, align 4
  %3 = tail call ptr @prefs_register_protocol(i32 noundef %2, ptr noundef null)
  tail call void @prefs_register_bool_preference(ptr noundef %3, ptr noundef nonnull @.str.180, ptr noundef nonnull @.str.181, ptr noundef nonnull @.str.182, ptr noundef nonnull @fmp_fhandle_reqrep_matching)
  ret void
}